target datalayout = "e-m:e-p270:32:32-p271:32:32-p272:64:64-i64:64-i128:128-f80:128-n8:16:32:64-S128"
target triple = "x86_64-unknown-linux-gnu"

%"class.cvc5::internal::FatalStream" = type { i8 }

@.str = private unnamed_addr constant [6 x i8] c"eager\00", align 1
@.str.1 = private unnamed_addr constant [13 x i8] c"eager-simple\00", align 1
@.str.2 = private unnamed_addr constant [5 x i8] c"lazy\00", align 1
@.str.3 = private unnamed_addr constant [5 x i8] c"none\00", align 1
@__PRETTY_FUNCTION__._ZN4cvc58internal7optionslsERSoNS1_14ProofCheckModeE = private unnamed_addr constant [82 x i8] c"std::ostream &cvc5::internal::options::operator<<(std::ostream &, ProofCheckMode)\00", align 1
@.str.4 = private unnamed_addr constant [124 x i8] c"generated/home/dtcxzyw/WorkSpace/Projects/compilers/llvm-opt-benchmark/bench/cvc5/bench_build/src/options/proof_options.cpp\00", align 1
@.str.5 = private unnamed_addr constant [26 x i8] c"Unreachable code reached \00", align 1

; Function Attrs: mustprogress uwtable
define hidden noundef nonnull align 8 dereferenceable(8) ptr @_ZN4cvc58internal7optionslsERSoNS1_14ProofCheckModeE(ptr noundef nonnull align 8 dereferenceable(8) %os, i32 noundef %mode) #4 personality ptr @__gxx_personality_v0 {
entry:
  %retval = alloca ptr, align 8
  %os.addr = alloca ptr, align 8
  %mode.addr = alloca i32, align 4
  %ref.tmp = alloca %"class.cvc5::internal::FatalStream", align 1
  %exn.slot = alloca ptr, align 8
  %ehselector.slot = alloca i32, align 4
  store ptr %os, ptr %os.addr, align 8
  store i32 %mode, ptr %mode.addr, align 4
  %0 = load i32, ptr %mode.addr, align 4
  switch i32 %0, label %sw.default [
    i32 0, label %sw.bb
    i32 1, label %sw.bb1
    i32 2, label %sw.bb3
    i32 3, label %sw.bb5
  ]

sw.bb:                                            ; preds = %entry
  %1 = load ptr, ptr %os.addr, align 8
  %call = call noundef nonnull align 8 dereferenceable(8) ptr @_ZStlsISt11char_traitsIcEERSt13basic_ostreamIcT_ES5_PKc(ptr noundef nonnull align 8 dereferenceable(8) %1, ptr noundef @.str)
  store ptr %call, ptr %retval, align 8
  br label %return

sw.bb1:                                           ; preds = %entry
  %2 = load ptr, ptr %os.addr, align 8
  %call2 = call noundef nonnull align 8 dereferenceable(8) ptr @_ZStlsISt11char_traitsIcEERSt13basic_ostreamIcT_ES5_PKc(ptr noundef nonnull align 8 dereferenceable(8) %2, ptr noundef @.str.1)
  store ptr %call2, ptr %retval, align 8
  br label %return

sw.bb3:                                           ; preds = %entry
  %3 = load ptr, ptr %os.addr, align 8
  %call4 = call noundef nonnull align 8 dereferenceable(8) ptr @_ZStlsISt11char_traitsIcEERSt13basic_ostreamIcT_ES5_PKc(ptr noundef nonnull align 8 dereferenceable(8) %3, ptr noundef @.str.2)
  store ptr %call4, ptr %retval, align 8
  br label %return

sw.bb5:                                           ; preds = %entry
  %4 = load ptr, ptr %os.addr, align 8
  %call6 = call noundef nonnull align 8 dereferenceable(8) ptr @_ZStlsISt11char_traitsIcEERSt13basic_ostreamIcT_ES5_PKc(ptr noundef nonnull align 8 dereferenceable(8) %4, ptr noundef @.str.3)
  store ptr %call6, ptr %retval, align 8
  br label %return

sw.default:                                       ; preds = %entry
  call void @_ZN4cvc58internal11FatalStreamC1EPKcS3_i(ptr noundef nonnull align 1 dereferenceable(1) %ref.tmp, ptr noundef @__PRETTY_FUNCTION__._ZN4cvc58internal7optionslsERSoNS1_14ProofCheckModeE, ptr noundef @.str.4, i32 noundef 36)
  %call7 = invoke noundef nonnull align 8 dereferenceable(8) ptr @_ZN4cvc58internal11FatalStream6streamEv(ptr noundef nonnull align 1 dereferenceable(1) %ref.tmp)
          to label %invoke.cont unwind label %lpad

invoke.cont:                                      ; preds = %sw.default
  %call9 = invoke noundef nonnull align 8 dereferenceable(8) ptr @_ZStlsISt11char_traitsIcEERSt13basic_ostreamIcT_ES5_PKc(ptr noundef nonnull align 8 dereferenceable(8) %call7, ptr noundef @.str.5)
          to label %invoke.cont8 unwind label %lpad

invoke.cont8:                                     ; preds = %invoke.cont
  call void @_ZN4cvc58internal11FatalStreamD1Ev(ptr noundef nonnull align 1 dereferenceable(1) %ref.tmp) #10
  unreachable

lpad:                                             ; preds = %invoke.cont, %sw.default
  %5 = landingpad { ptr, i32 }
          cleanup
  %6 = extractvalue { ptr, i32 } %5, 0
  store ptr %6, ptr %exn.slot, align 8
  %7 = extractvalue { ptr, i32 } %5, 1
  store i32 %7, ptr %ehselector.slot, align 4
  call void @_ZN4cvc58internal11FatalStreamD1Ev(ptr noundef nonnull align 1 dereferenceable(1) %ref.tmp) #10
  unreachable

8:                                                ; No predecessors!
  br label %eh.resume

return:                                           ; preds = %sw.bb5, %sw.bb3, %sw.bb1, %sw.bb
  %9 = load ptr, ptr %retval, align 8
  ret ptr %9

eh.resume:                                        ; preds = %8
  %exn = load ptr, ptr %exn.slot, align 8
  %sel = load i32, ptr %ehselector.slot, align 4
  %lpad.val = insertvalue { ptr, i32 } poison, ptr %exn, 0
  %lpad.val10 = insertvalue { ptr, i32 } %lpad.val, i32 %sel, 1
  resume { ptr, i32 } %lpad.val10
}